	.file	"pic.c"
	.text
.Ltext0:
	.globl	pic_remap
	.type	pic_remap, @function
pic_remap:
.LFB0:
	.file 1 "pic.c"
	.loc 1 20 0
	.cfi_startproc
	pushl	%ebp
	.cfi_def_cfa_offset 8
	.cfi_offset 5, -8
	movl	%esp, %ebp
	.cfi_def_cfa_register 5
	subl	$8, %esp
	.loc 1 22 0
	subl	$8, %esp
	pushl	$17
	pushl	$32
	call	outb
	addl	$16, %esp
	.loc 1 23 0
	subl	$8, %esp
	pushl	$17
	pushl	$160
	call	outb
	addl	$16, %esp
	.loc 1 31 0
	movl	8(%ebp), %eax
	movsbl	%al, %eax
	subl	$8, %esp
	pushl	%eax
	pushl	$33
	call	outb
	addl	$16, %esp
	.loc 1 32 0
	movl	8(%ebp), %eax
	addl	$8, %eax
	movsbl	%al, %eax
	subl	$8, %esp
	pushl	%eax
	pushl	$161
	call	outb
	addl	$16, %esp
	.loc 1 35 0
	subl	$8, %esp
	pushl	$4
	pushl	$33
	call	outb
	addl	$16, %esp
	.loc 1 36 0
	subl	$8, %esp
	pushl	$2
	pushl	$161
	call	outb
	addl	$16, %esp
	.loc 1 39 0
	subl	$8, %esp
	pushl	$1
	pushl	$33
	call	outb
	addl	$16, %esp
	.loc 1 40 0
	subl	$8, %esp
	pushl	$1
	pushl	$161
	call	outb
	addl	$16, %esp
	.loc 1 41 0
	nop
	leave
	.cfi_restore 5
	.cfi_def_cfa 4, 4
	ret
	.cfi_endproc
.LFE0:
	.size	pic_remap, .-pic_remap
	.globl	pic_mask_irqs
	.type	pic_mask_irqs, @function
pic_mask_irqs:
.LFB1:
	.loc 1 44 0
	.cfi_startproc
	pushl	%ebp
	.cfi_def_cfa_offset 8
	.cfi_offset 5, -8
	movl	%esp, %ebp
	.cfi_def_cfa_register 5
	subl	$24, %esp
	movl	8(%ebp), %eax
	movw	%ax, -12(%ebp)
	.loc 1 45 0
	movzwl	-12(%ebp), %eax
	movsbl	%al, %eax
	subl	$8, %esp
	pushl	%eax
	pushl	$33
	call	outb
	addl	$16, %esp
	.loc 1 46 0
	movzwl	-12(%ebp), %eax
	shrw	$8, %ax
	movsbl	%al, %eax
	subl	$8, %esp
	pushl	%eax
	pushl	$161
	call	outb
	addl	$16, %esp
	.loc 1 47 0
	nop
	leave
	.cfi_restore 5
	.cfi_def_cfa 4, 4
	ret
	.cfi_endproc
.LFE1:
	.size	pic_mask_irqs, .-pic_mask_irqs
	.globl	pic_send_eoi
	.type	pic_send_eoi, @function
pic_send_eoi:
.LFB2:
	.loc 1 50 0
	.cfi_startproc
	pushl	%ebp
	.cfi_def_cfa_offset 8
	.cfi_offset 5, -8
	movl	%esp, %ebp
	.cfi_def_cfa_register 5
	subl	$24, %esp
	movl	8(%ebp), %eax
	movb	%al, -12(%ebp)
	.loc 1 51 0
	subl	$8, %esp
	pushl	$32
	pushl	$32
	call	outb
	addl	$16, %esp
	.loc 1 52 0
	cmpb	$7, -12(%ebp)
	jle	.L5
	.loc 1 53 0
	subl	$8, %esp
	pushl	$32
	pushl	$160
	call	outb
	addl	$16, %esp
.L5:
	.loc 1 55 0
	nop
	leave
	.cfi_restore 5
	.cfi_def_cfa 4, 4
	ret
	.cfi_endproc
.LFE2:
	.size	pic_send_eoi, .-pic_send_eoi
	.section	.rodata
.LC0:
	.string	"IRQ1 executed: return 0x%x\n"
	.text
	.globl	pic_send_eoi2
	.type	pic_send_eoi2, @function
pic_send_eoi2:
.LFB3:
	.loc 1 58 0
	.cfi_startproc
	pushl	%ebp
	.cfi_def_cfa_offset 8
	.cfi_offset 5, -8
	movl	%esp, %ebp
	.cfi_def_cfa_register 5
	subl	$24, %esp
	.loc 1 59 0
	call	read_first
	movzbl	%al, %eax
	movl	%eax, -12(%ebp)
	.loc 1 60 0
	subl	$8, %esp
	pushl	-12(%ebp)
	pushl	$.LC0
	call	printf
	addl	$16, %esp
.L7:
	.loc 1 61 0 discriminator 1
	jmp	.L7
	.cfi_endproc
.LFE3:
	.size	pic_send_eoi2, .-pic_send_eoi2
.Letext0:
	.file 2 "stdint.h"
	.section	.note.GNU-stack,"",@progbits
